target datalayout = "e-m:e-p270:32:32-p271:32:32-p272:64:64-i64:64-i128:128-f80:128-n8:16:32:64-S128"
target triple = "x86_64-unknown-linux-gnu"

%struct.emap_s = type { %struct.rtree_s }
%struct.rtree_s = type { ptr, %struct.malloc_mutex_s, [262144 x %struct.rtree_node_elm_s] }
%struct.malloc_mutex_s = type { %union.anon.3 }
%union.anon.3 = type { %struct.anon.4 }
%struct.anon.4 = type { %struct.mutex_prof_data_t, %union.pthread_mutex_t, %struct.atomic_b_t }
%struct.mutex_prof_data_t = type { %struct.nstime_t, %struct.nstime_t, i64, i64, i32, %struct.atomic_u32_t, i64, ptr, i64 }
%struct.nstime_t = type { i64 }
%struct.atomic_u32_t = type { i32 }
%union.pthread_mutex_t = type { %struct.__pthread_mutex_s }
%struct.__pthread_mutex_s = type { i32, i32, i32, i32, i32, i16, i16, %struct.__pthread_internal_list }
%struct.__pthread_internal_list = type { ptr, ptr }
%struct.atomic_b_t = type { i8 }
%struct.rtree_node_elm_s = type { %struct.atomic_p_t }
%struct.atomic_p_t = type { ptr }
%struct.rtree_ctx_s = type { [16 x %struct.rtree_ctx_cache_elm_s], [8 x %struct.rtree_ctx_cache_elm_s] }
%struct.rtree_ctx_cache_elm_s = type { i64, ptr }
%struct.rtree_metadata_s = type { i32, i32, i8, i8 }
%struct.emap_alloc_ctx_t = type { i32, i8 }
%struct.rtree_contents_s = type { ptr, %struct.rtree_metadata_s }
%struct.tsd_s = type { i8, i8, i64, i64, i64, i64, i64, i64, i64, i64, i64, i64, i64, i64, ptr, i64, i64, i64, ptr, ptr, %struct.ticker_geom_s, i8, %struct.tsd_binshards_s, %struct.tsd_link_t, i8, %struct.peak_s, %struct.activity_callback_thunk_s, %struct.tcache_slow_s, %struct.rtree_ctx_s, %struct.atomic_u8_t, i64, i64, i64, i64, %struct.tcache_s, %struct.witness_tsd_s }
%struct.ticker_geom_s = type { i32, i32 }
%struct.tsd_binshards_s = type { [39 x i8] }
%struct.tsd_link_t = type { ptr, ptr }
%struct.peak_s = type { i64, i64 }
%struct.activity_callback_thunk_s = type { ptr, ptr }
%struct.tcache_slow_s = type { %struct.anon, %struct.cache_bin_array_descriptor_s, ptr, i32, [39 x i8], [39 x i8], [39 x i8], ptr, ptr }
%struct.anon = type { ptr, ptr }
%struct.cache_bin_array_descriptor_s = type { %struct.anon.0, ptr }
%struct.anon.0 = type { ptr, ptr }
%struct.atomic_u8_t = type { i8 }
%struct.tcache_s = type { ptr, [76 x %struct.cache_bin_s] }
%struct.cache_bin_s = type { ptr, %struct.cache_bin_stats_s, i16, i16, i16 }
%struct.cache_bin_stats_s = type { i64 }
%struct.witness_tsd_s = type { %struct.witness_list_t, i8 }
%struct.witness_list_t = type { ptr }

@arena_emap_global = external global %struct.emap_s, align 8

; Function Attrs: nounwind uwtable
define internal void @arena_dalloc_large_no_tcache(ptr noundef %tsdn, ptr noundef %ptr, i32 noundef %szind) #0 {
entry:
  %edata.addr.i = alloca ptr, align 8
  %ptr.addr.i5 = alloca ptr, align 8
  %szind.addr.i = alloca i32, align 4
  %tsd.addr.i4 = alloca ptr, align 8
  %tsd.addr.i.i = alloca ptr, align 8
  %tsd.addr.i3 = alloca ptr, align 8
  %state.i = alloca i8, align 1
  %tsd.addr.i = alloca ptr, align 8
  %tsdn.addr.i4.i = alloca ptr, align 8
  %tsdn.addr.i.i = alloca ptr, align 8
  %retval.i = alloca ptr, align 8
  %tsdn.addr.i2 = alloca ptr, align 8
  %fallback.addr.i = alloca ptr, align 8
  %tsdn.addr.i = alloca ptr, align 8
  %emap.addr.i = alloca ptr, align 8
  %ptr.addr.i = alloca ptr, align 8
  %rtree_ctx_fallback.i = alloca %struct.rtree_ctx_s, align 8
  %rtree_ctx.i = alloca ptr, align 8
  %tmp.i = alloca %struct.rtree_contents_s, align 8
  %tsdn.addr = alloca ptr, align 8
  %ptr.addr = alloca ptr, align 8
  %szind.addr = alloca i32, align 4
  %edata = alloca ptr, align 8
  store ptr %tsdn, ptr %tsdn.addr, align 8
  store ptr %ptr, ptr %ptr.addr, align 8
  store i32 %szind, ptr %szind.addr, align 4
  %0 = load ptr, ptr %tsdn.addr, align 8
  %1 = load ptr, ptr %ptr.addr, align 8
  store ptr %0, ptr %tsdn.addr.i, align 8
  store ptr @arena_emap_global, ptr %emap.addr.i, align 8
  store ptr %1, ptr %ptr.addr.i, align 8
  %2 = load ptr, ptr %tsdn.addr.i, align 8
  store ptr %2, ptr %tsdn.addr.i2, align 8
  store ptr %rtree_ctx_fallback.i, ptr %fallback.addr.i, align 8
  %3 = load ptr, ptr %tsdn.addr.i2, align 8
  store ptr %3, ptr %tsdn.addr.i.i, align 8
  %4 = load ptr, ptr %tsdn.addr.i.i, align 8
  %cmp.i.i = icmp eq ptr %4, null
  br i1 %cmp.i.i, label %if.then.i, label %if.end.i

if.then.i:                                        ; preds = %entry
  %5 = load ptr, ptr %fallback.addr.i, align 8
  call void @rtree_ctx_data_init(ptr noundef %5) #8
  %6 = load ptr, ptr %fallback.addr.i, align 8
  store ptr %6, ptr %retval.i, align 8
  br label %tsdn_rtree_ctx.exit

if.end.i:                                         ; preds = %entry
  %7 = load ptr, ptr %tsdn.addr.i2, align 8
  store ptr %7, ptr %tsdn.addr.i4.i, align 8
  %8 = load ptr, ptr %tsdn.addr.i4.i, align 8
  store ptr %8, ptr %tsd.addr.i, align 8
  %9 = load ptr, ptr %tsd.addr.i, align 8
  store ptr %9, ptr %tsd.addr.i3, align 8
  %10 = load ptr, ptr %tsd.addr.i3, align 8
  store ptr %10, ptr %tsd.addr.i.i, align 8
  %11 = load ptr, ptr %tsd.addr.i.i, align 8
  %state.i.i = getelementptr inbounds %struct.tsd_s, ptr %11, i32 0, i32 29
  %12 = load i8, ptr %state.i.i, align 8
  store i8 %12, ptr %state.i, align 1
  %13 = load ptr, ptr %tsd.addr.i3, align 8
  store ptr %13, ptr %tsd.addr.i4, align 8
  %14 = load ptr, ptr %tsd.addr.i4, align 8
  %cant_access_tsd_items_directly_use_a_getter_or_setter_rtree_ctx.i = getelementptr inbounds %struct.tsd_s, ptr %14, i32 0, i32 28
  store ptr %cant_access_tsd_items_directly_use_a_getter_or_setter_rtree_ctx.i, ptr %retval.i, align 8
  br label %tsdn_rtree_ctx.exit

tsdn_rtree_ctx.exit:                              ; preds = %if.end.i, %if.then.i
  %15 = load ptr, ptr %retval.i, align 8
  store ptr %15, ptr %rtree_ctx.i, align 8
  %16 = load ptr, ptr %tsdn.addr.i, align 8
  %17 = load ptr, ptr %emap.addr.i, align 8
  %18 = load ptr, ptr %rtree_ctx.i, align 8
  %19 = load ptr, ptr %ptr.addr.i, align 8
  %20 = ptrtoint ptr %19 to i64
  call void @rtree_read(ptr dead_on_unwind writable sret(%struct.rtree_contents_s) align 8 %tmp.i, ptr noundef %16, ptr noundef %17, ptr noundef %18, i64 noundef %20)
  %21 = load ptr, ptr %tmp.i, align 8
  store ptr %21, ptr %edata, align 8
  %22 = load ptr, ptr %edata, align 8
  %23 = load ptr, ptr %ptr.addr, align 8
  %24 = load i32, ptr %szind.addr, align 4
  store ptr %22, ptr %edata.addr.i, align 8
  store ptr %23, ptr %ptr.addr.i5, align 8
  store i32 %24, ptr %szind.addr.i, align 4
  br i1 false, label %if.then, label %if.end

if.then:                                          ; preds = %tsdn_rtree_ctx.exit
  br label %return

if.end:                                           ; preds = %tsdn_rtree_ctx.exit
  %25 = load ptr, ptr %tsdn.addr, align 8
  %26 = load ptr, ptr %edata, align 8
  call void @large_dalloc(ptr noundef %25, ptr noundef %26)
  br label %return

return:                                           ; preds = %if.end, %if.then
  ret void
}

; Function Attrs: nounwind uwtable
define internal void @arena_dalloc_no_tcache(ptr noundef %tsdn, ptr noundef %ptr) #0 {
entry:
  %tsd.addr.i5.i = alloca ptr, align 8
  %tsd.addr.i.i.i = alloca ptr, align 8
  %tsd.addr.i4.i = alloca ptr, align 8
  %state.i.i = alloca i8, align 1
  %tsd.addr.i.i = alloca ptr, align 8
  %tsdn.addr.i4.i.i = alloca ptr, align 8
  %tsdn.addr.i.i.i = alloca ptr, align 8
  %retval.i.i = alloca ptr, align 8
  %tsdn.addr.i.i = alloca ptr, align 8
  %fallback.addr.i.i = alloca ptr, align 8
  %tsdn.addr.i = alloca ptr, align 8
  %emap.addr.i = alloca ptr, align 8
  %ptr.addr.i = alloca ptr, align 8
  %alloc_ctx.addr.i = alloca ptr, align 8
  %rtree_ctx_fallback.i = alloca %struct.rtree_ctx_s, align 8
  %rtree_ctx.i = alloca ptr, align 8
  %metadata.i = alloca %struct.rtree_metadata_s, align 4
  %tmp.coerce.i = alloca { i64, i32 }, align 8
  %tsdn.addr = alloca ptr, align 8
  %ptr.addr = alloca ptr, align 8
  %alloc_ctx = alloca %struct.emap_alloc_ctx_t, align 4
  store ptr %tsdn, ptr %tsdn.addr, align 8
  store ptr %ptr, ptr %ptr.addr, align 8
  br label %do.body

do.body:                                          ; preds = %entry
  br label %do.end

do.end:                                           ; preds = %do.body
  %0 = load ptr, ptr %tsdn.addr, align 8
  %1 = load ptr, ptr %ptr.addr, align 8
  store ptr %0, ptr %tsdn.addr.i, align 8
  store ptr @arena_emap_global, ptr %emap.addr.i, align 8
  store ptr %1, ptr %ptr.addr.i, align 8
  store ptr %alloc_ctx, ptr %alloc_ctx.addr.i, align 8
  %2 = load ptr, ptr %tsdn.addr.i, align 8
  store ptr %2, ptr %tsdn.addr.i.i, align 8
  store ptr %rtree_ctx_fallback.i, ptr %fallback.addr.i.i, align 8
  %3 = load ptr, ptr %tsdn.addr.i.i, align 8
  store ptr %3, ptr %tsdn.addr.i.i.i, align 8
  %4 = load ptr, ptr %tsdn.addr.i.i.i, align 8
  %cmp.i.i.i = icmp eq ptr %4, null
  br i1 %cmp.i.i.i, label %if.then.i.i, label %if.end.i.i

if.then.i.i:                                      ; preds = %do.end
  %5 = load ptr, ptr %fallback.addr.i.i, align 8
  call void @rtree_ctx_data_init(ptr noundef %5) #8
  %6 = load ptr, ptr %fallback.addr.i.i, align 8
  store ptr %6, ptr %retval.i.i, align 8
  br label %emap_alloc_ctx_lookup.exit

if.end.i.i:                                       ; preds = %do.end
  %7 = load ptr, ptr %tsdn.addr.i.i, align 8
  store ptr %7, ptr %tsdn.addr.i4.i.i, align 8
  %8 = load ptr, ptr %tsdn.addr.i4.i.i, align 8
  store ptr %8, ptr %tsd.addr.i.i, align 8
  %9 = load ptr, ptr %tsd.addr.i.i, align 8
  store ptr %9, ptr %tsd.addr.i4.i, align 8
  %10 = load ptr, ptr %tsd.addr.i4.i, align 8
  store ptr %10, ptr %tsd.addr.i.i.i, align 8
  %11 = load ptr, ptr %tsd.addr.i.i.i, align 8
  %state.i.i.i = getelementptr inbounds %struct.tsd_s, ptr %11, i32 0, i32 29
  %12 = load i8, ptr %state.i.i.i, align 8
  store i8 %12, ptr %state.i.i, align 1
  %13 = load ptr, ptr %tsd.addr.i4.i, align 8
  store ptr %13, ptr %tsd.addr.i5.i, align 8
  %14 = load ptr, ptr %tsd.addr.i5.i, align 8
  %cant_access_tsd_items_directly_use_a_getter_or_setter_rtree_ctx.i.i = getelementptr inbounds %struct.tsd_s, ptr %14, i32 0, i32 28
  store ptr %cant_access_tsd_items_directly_use_a_getter_or_setter_rtree_ctx.i.i, ptr %retval.i.i, align 8
  br label %emap_alloc_ctx_lookup.exit

emap_alloc_ctx_lookup.exit:                       ; preds = %if.end.i.i, %if.then.i.i
  %15 = load ptr, ptr %retval.i.i, align 8
  store ptr %15, ptr %rtree_ctx.i, align 8
  %16 = load ptr, ptr %tsdn.addr.i, align 8
  %17 = load ptr, ptr %emap.addr.i, align 8
  %18 = load ptr, ptr %rtree_ctx.i, align 8
  %19 = load ptr, ptr %ptr.addr.i, align 8
  %20 = ptrtoint ptr %19 to i64
  %call1.i = call { i64, i32 } @rtree_metadata_read(ptr noundef %16, ptr noundef %17, ptr noundef %18, i64 noundef %20)
  store { i64, i32 } %call1.i, ptr %tmp.coerce.i, align 8
  call void @llvm.memcpy.p0.p0.i64(ptr align 4 %metadata.i, ptr align 8 %tmp.coerce.i, i64 12, i1 false)
  %21 = load i32, ptr %metadata.i, align 4
  %22 = load ptr, ptr %alloc_ctx.addr.i, align 8
  store i32 %21, ptr %22, align 4
  %slab.i = getelementptr inbounds %struct.rtree_metadata_s, ptr %metadata.i, i32 0, i32 3
  %23 = load i8, ptr %slab.i, align 1
  %tobool.i = trunc i8 %23 to i1
  %24 = load ptr, ptr %alloc_ctx.addr.i, align 8
  %slab3.i = getelementptr inbounds %struct.emap_alloc_ctx_t, ptr %24, i32 0, i32 1
  %frombool.i = zext i1 %tobool.i to i8
  store i8 %frombool.i, ptr %slab3.i, align 4
  %slab = getelementptr inbounds %struct.emap_alloc_ctx_t, ptr %alloc_ctx, i32 0, i32 1
  %25 = load i8, ptr %slab, align 4
  %tobool = trunc i8 %25 to i1
  %lnot = xor i1 %tobool, true
  %lnot1 = xor i1 %lnot, true
  %lnot.ext = zext i1 %lnot1 to i32
  %conv = sext i32 %lnot.ext to i64
  %tobool2 = icmp ne i64 %conv, 0
  br i1 %tobool2, label %if.then, label %if.else

if.then:                                          ; preds = %emap_alloc_ctx_lookup.exit
  %26 = load ptr, ptr %tsdn.addr, align 8
  %27 = load ptr, ptr %ptr.addr, align 8
  call void @arena_dalloc_small(ptr noundef %26, ptr noundef %27)
  br label %if.end

if.else:                                          ; preds = %emap_alloc_ctx_lookup.exit
  %28 = load ptr, ptr %tsdn.addr, align 8
  %29 = load ptr, ptr %ptr.addr, align 8
  %szind = getelementptr inbounds %struct.emap_alloc_ctx_t, ptr %alloc_ctx, i32 0, i32 0
  %30 = load i32, ptr %szind, align 4
  call void @arena_dalloc_large_no_tcache(ptr noundef %28, ptr noundef %29, i32 noundef %30)
  br label %if.end

if.end:                                           ; preds = %if.else, %if.then
  ret void
}